target datalayout = "e-m:e-p270:32:32-p271:32:32-p272:64:64-i64:64-i128:128-f80:128-n8:16:32:64-S128"
target triple = "x86_64-pc-linux-gnu"

%"class.Json::Features" = type { i8, i8 }
%"class.Json::Reader" = type <{ %"class.std::stack", %"class.std::deque.0", %"class.std::__cxx11::basic_string", ptr, ptr, ptr, ptr, ptr, %"class.std::__cxx11::basic_string", %"class.Json::Features", i8, [5 x i8] }>
%"class.std::stack" = type { %"class.std::deque" }
%"class.std::deque" = type { %"class.std::_Deque_base" }
%"class.std::_Deque_base" = type { %"struct.std::_Deque_base<Json::Value *, std::allocator<Json::Value *>>::_Deque_impl" }
%"struct.std::_Deque_base<Json::Value *, std::allocator<Json::Value *>>::_Deque_impl" = type { %"struct.std::_Deque_base<Json::Value *, std::allocator<Json::Value *>>::_Deque_impl_data" }
%"struct.std::_Deque_base<Json::Value *, std::allocator<Json::Value *>>::_Deque_impl_data" = type { ptr, i64, %"struct.std::_Deque_iterator", %"struct.std::_Deque_iterator" }
%"struct.std::_Deque_iterator" = type { ptr, ptr, ptr, ptr }
%"class.std::deque.0" = type { %"class.std::_Deque_base.1" }
%"class.std::_Deque_base.1" = type { %"struct.std::_Deque_base<Json::Reader::ErrorInfo, std::allocator<Json::Reader::ErrorInfo>>::_Deque_impl" }
%"struct.std::_Deque_base<Json::Reader::ErrorInfo, std::allocator<Json::Reader::ErrorInfo>>::_Deque_impl" = type { %"struct.std::_Deque_base<Json::Reader::ErrorInfo, std::allocator<Json::Reader::ErrorInfo>>::_Deque_impl_data" }
%"struct.std::_Deque_base<Json::Reader::ErrorInfo, std::allocator<Json::Reader::ErrorInfo>>::_Deque_impl_data" = type { ptr, i64, %"struct.std::_Deque_iterator.5", %"struct.std::_Deque_iterator.5" }
%"struct.std::_Deque_iterator.5" = type { ptr, ptr, ptr, ptr }
%"class.std::__cxx11::basic_string" = type { %"struct.std::__cxx11::basic_string<char>::_Alloc_hider", i64, %union.anon }
%"struct.std::__cxx11::basic_string<char>::_Alloc_hider" = type { ptr }
%union.anon = type { i64, [8 x i8] }

; Function Attrs: mustprogress nounwind uwtable
define dso_local noundef zeroext i1 @_ZN4Json6Reader5matchEPKci(ptr noundef nonnull align 8 dereferenceable(267) %0, ptr noundef %1, i32 noundef %2) #0 align 2 {
  %4 = alloca i1, align 1
  %5 = alloca ptr, align 8
  %6 = alloca ptr, align 8
  %7 = alloca i32, align 4
  %8 = alloca i32, align 4
  store ptr %0, ptr %5, align 8
  store ptr %1, ptr %6, align 8
  store i32 %2, ptr %7, align 4
  %9 = load ptr, ptr %5, align 8
  %10 = getelementptr inbounds %"class.Json::Reader", ptr %9, i32 0, i32 4
  %11 = load ptr, ptr %10, align 8
  %12 = getelementptr inbounds %"class.Json::Reader", ptr %9, i32 0, i32 5
  %13 = load ptr, ptr %12, align 8
  %14 = ptrtoint ptr %11 to i64
  %15 = ptrtoint ptr %13 to i64
  %16 = sub i64 %14, %15
  %17 = load i32, ptr %7, align 4
  %18 = sext i32 %17 to i64
  %19 = icmp slt i64 %16, %18
  br i1 %19, label %20, label %21

20:                                               ; preds = %3
  store i1 false, ptr %4, align 1
  br label %50

21:                                               ; preds = %3
  %22 = load i32, ptr %7, align 4
  store i32 %22, ptr %8, align 4
  br label %23

23:                                               ; preds = %43, %21
  %24 = load i32, ptr %8, align 4
  %25 = add nsw i32 %24, -1
  store i32 %25, ptr %8, align 4
  %26 = icmp ne i32 %24, 0
  br i1 %26, label %27, label %44

27:                                               ; preds = %23
  %28 = getelementptr inbounds %"class.Json::Reader", ptr %9, i32 0, i32 5
  %29 = load ptr, ptr %28, align 8
  %30 = load i32, ptr %8, align 4
  %31 = sext i32 %30 to i64
  %32 = getelementptr inbounds i8, ptr %29, i64 %31
  %33 = load i8, ptr %32, align 1
  %34 = sext i8 %33 to i32
  %35 = load ptr, ptr %6, align 8
  %36 = load i32, ptr %8, align 4
  %37 = sext i32 %36 to i64
  %38 = getelementptr inbounds i8, ptr %35, i64 %37
  %39 = load i8, ptr %38, align 1
  %40 = sext i8 %39 to i32
  %41 = icmp ne i32 %34, %40
  br i1 %41, label %42, label %43

42:                                               ; preds = %27
  store i1 false, ptr %4, align 1
  br label %50

43:                                               ; preds = %27
  br label %23, !llvm.loop !18

44:                                               ; preds = %23
  %45 = load i32, ptr %7, align 4
  %46 = getelementptr inbounds %"class.Json::Reader", ptr %9, i32 0, i32 5
  %47 = load ptr, ptr %46, align 8
  %48 = sext i32 %45 to i64
  %49 = getelementptr inbounds i8, ptr %47, i64 %48
  store ptr %49, ptr %46, align 8
  store i1 true, ptr %4, align 1
  br label %50

50:                                               ; preds = %44, %42, %20
  %51 = load i1, ptr %4, align 1
  ret i1 %51
}